	.text
	.file	"libyaxoops.cap3mkxh-cgu.0"
	.file	1 "/rustc/442ae7f04026c215a03b155eaaf9cde8bb5cf02a/src/liballoc/collections/btree/node.rs"
	.file	2 "/cargo/registry/src/github.com-1ecc6299db9ec823/backtrace-0.3.40/src/symbolize/libbacktrace.rs"
	.file	3 "/rustc/442ae7f04026c215a03b155eaaf9cde8bb5cf02a/src/libcore/num/flt2dec/strategy/dragon.rs"
	.file	4 "/rustc/442ae7f04026c215a03b155eaaf9cde8bb5cf02a/src/libcore/num/flt2dec/strategy/grisu.rs"
	.file	5 "/rustc/442ae7f04026c215a03b155eaaf9cde8bb5cf02a/src/libcore/fmt/num.rs"
	.file	6 "/rustc/442ae7f04026c215a03b155eaaf9cde8bb5cf02a/src/libcore/str/mod.rs"
	.file	7 "/rustc/442ae7f04026c215a03b155eaaf9cde8bb5cf02a/src/libcore/unicode/unicode_data.rs"
	.file	8 "/cargo/registry/src/github.com-1ecc6299db9ec823/hashbrown-0.6.2/src/raw/sse2.rs"
	.file	9 "/rustc/442ae7f04026c215a03b155eaaf9cde8bb5cf02a/src/libstd/thread/mod.rs"
	.file	10 "/rustc/442ae7f04026c215a03b155eaaf9cde8bb5cf02a/src/libstd/backtrace.rs"
	.file	11 "/rustc/442ae7f04026c215a03b155eaaf9cde8bb5cf02a/src/libstd/io/stdio.rs"
	.file	12 "/rustc/442ae7f04026c215a03b155eaaf9cde8bb5cf02a/src/libstd/time.rs"
	.file	13 "/rustc/442ae7f04026c215a03b155eaaf9cde8bb5cf02a/src/libstd/sys_common/at_exit_imp.rs"
	.file	14 "/rustc/442ae7f04026c215a03b155eaaf9cde8bb5cf02a/src/libstd/sys_common/backtrace.rs"
	.file	15 "/rustc/442ae7f04026c215a03b155eaaf9cde8bb5cf02a/src/libstd/sys_common/thread.rs"
	.file	16 "/rustc/442ae7f04026c215a03b155eaaf9cde8bb5cf02a/src/libstd/sys_common/thread_local.rs"
	.file	17 "/rustc/442ae7f04026c215a03b155eaaf9cde8bb5cf02a/src/libstd/sys_common/mod.rs"
	.file	18 "/rustc/442ae7f04026c215a03b155eaaf9cde8bb5cf02a/src/libstd/alloc.rs"
	.file	19 "/rustc/442ae7f04026c215a03b155eaaf9cde8bb5cf02a/src/libstd/panicking.rs"
	.file	20 "/rustc/442ae7f04026c215a03b155eaaf9cde8bb5cf02a/src/libstd/../stdarch/crates/std_detect/src/detect/cache.rs"
	.file	21 "/rustc/442ae7f04026c215a03b155eaaf9cde8bb5cf02a/src/libstd/thread/local.rs"
	.file	22 "/rustc/442ae7f04026c215a03b155eaaf9cde8bb5cf02a/src/libstd/sys/unix/args.rs"
	.file	23 "/rustc/442ae7f04026c215a03b155eaaf9cde8bb5cf02a/src/libstd/sys/unix/fd.rs"
	.file	24 "/rustc/442ae7f04026c215a03b155eaaf9cde8bb5cf02a/src/libstd/sys/unix/fs.rs"
	.file	25 "/rustc/442ae7f04026c215a03b155eaaf9cde8bb5cf02a/src/libstd/sys/unix/os.rs"
	.file	26 "/rustc/442ae7f04026c215a03b155eaaf9cde8bb5cf02a/src/libstd/sys/unix/pipe.rs"
	.file	27 "/rustc/442ae7f04026c215a03b155eaaf9cde8bb5cf02a/src/libstd/sys/unix/rand.rs"
	.file	28 "/rustc/442ae7f04026c215a03b155eaaf9cde8bb5cf02a/src/libstd/sys/unix/stack_overflow.rs"
	.file	29 "/rustc/442ae7f04026c215a03b155eaaf9cde8bb5cf02a/src/libstd/sys/unix/thread.rs"
	.file	30 "/rustc/442ae7f04026c215a03b155eaaf9cde8bb5cf02a/src/libstd/sys/unix/weak.rs"
	.section	.text.control_flow,"ax",@progbits
	.globl	control_flow
	.p2align	4, 0x90
	.type	control_flow,@function
control_flow:
.Lfunc_begin0:
	.cfi_startproc
	subq	$16, %rsp
	.cfi_def_cfa_offset 24
	movq	%rdi, %rax
	movb	8(%rsi), %cl
	movl	$4, %r9d
	xorl	%edi, %edi
	addb	$-1, %cl
	cmpb	$6, %cl
	ja	.LBB0_12
	movq	(%rsi), %r8
	movb	9(%rsi), %dl
	movzbl	%cl, %ecx
	leaq	.LJTI0_0(%rip), %rsi
	movslq	(%rsi,%rcx,4), %rcx
	addq	%rsi, %rcx
	jmpq	*%rcx
.LBB0_2:
	movb	$1, %dil
	jmp	.LBB0_16
.LBB0_3:
	movl	$4, %r9d
	movzbl	%dl, %ecx
	leaq	.LJTI0_4(%rip), %rdx
	movslq	(%rdx,%rcx,4), %rcx
	addq	%rdx, %rcx
	jmpq	*%rcx
.LBB0_5:
	movl	$4, %r9d
	movzbl	%dl, %ecx
	leaq	.LJTI0_3(%rip), %rdx
	movslq	(%rdx,%rcx,4), %rcx
	addq	%rdx, %rcx
	jmpq	*%rcx
.LBB0_4:
	movsbq	%r8b, %r8
	jmp	.LBB0_14
.LBB0_7:
	xorl	%esi, %esi
	movzbl	%dl, %ecx
	leaq	.LJTI0_2(%rip), %rdx
	movslq	(%rdx,%rcx,4), %rcx
	addq	%rdx, %rcx
	jmpq	*%rcx
.LBB0_8:
	xorl	%esi, %esi
	movzbl	%dl, %ecx
	leaq	.LJTI0_1(%rip), %rdx
	movslq	(%rdx,%rcx,4), %rcx
	addq	%rdx, %rcx
	jmpq	*%rcx
.LBB0_9:
	movq	%r8, %rsi
.LBB0_10:
	shlq	$32, %rsi
	movl	$32, %ecx
.LBB0_11:
	sarq	%cl, %rsi
	movl	9(%rsp), %ecx
	movl	12(%rsp), %edx
	movl	%edx, 3(%rsp)
	movl	%ecx, (%rsp)
	xorl	%edi, %edi
	movq	%rsi, %r8
	xorl	%r9d, %r9d
	jmp	.LBB0_16
.LBB0_12:
	jmp	.LBB0_16
.LBB0_13:
	movzbl	%r8b, %r8d
.LBB0_14:
	xorl	%r9d, %r9d
.LBB0_15:
	movl	9(%rsp), %ecx
	movl	12(%rsp), %edx
	movl	%edx, 3(%rsp)
	movl	%ecx, (%rsp)
	movb	$1, %dil
.LBB0_16:
	movq	%r9, (%rax)
	movq	%r8, 8(%rax)
	movb	%dil, 16(%rax)
	movl	(%rsp), %ecx
	movl	3(%rsp), %edx
	movl	%ecx, 17(%rax)
	movl	%edx, 20(%rax)
	addq	$16, %rsp
	.cfi_def_cfa_offset 8
	retq
.LBB0_17:
	.cfi_def_cfa_offset 24
	shlq	$56, %r8
	movl	$56, %ecx
	movq	%r8, %rsi
	jmp	.LBB0_11
.Lfunc_end0:
	.size	control_flow, .Lfunc_end0-control_flow
	.cfi_endproc
	.section	.rodata.control_flow,"a",@progbits
	.p2align	2
.LJTI0_0:
	.long	.LBB0_2-.LJTI0_0
	.long	.LBB0_16-.LJTI0_0
	.long	.LBB0_3-.LJTI0_0
	.long	.LBB0_16-.LJTI0_0
	.long	.LBB0_5-.LJTI0_0
	.long	.LBB0_7-.LJTI0_0
	.long	.LBB0_8-.LJTI0_0
.LJTI0_1:
	.long	.LBB0_10-.LJTI0_1
	.long	.LBB0_10-.LJTI0_1
	.long	.LBB0_17-.LJTI0_1
	.long	.LBB0_10-.LJTI0_1
	.long	.LBB0_9-.LJTI0_1
	.long	.LBB0_9-.LJTI0_1
	.long	.LBB0_10-.LJTI0_1
	.long	.LBB0_10-.LJTI0_1
.LJTI0_2:
	.long	.LBB0_10-.LJTI0_2
	.long	.LBB0_10-.LJTI0_2
	.long	.LBB0_17-.LJTI0_2
	.long	.LBB0_10-.LJTI0_2
	.long	.LBB0_9-.LJTI0_2
	.long	.LBB0_9-.LJTI0_2
	.long	.LBB0_10-.LJTI0_2
	.long	.LBB0_10-.LJTI0_2
.LJTI0_3:
	.long	.LBB0_15-.LJTI0_3
	.long	.LBB0_15-.LJTI0_3
	.long	.LBB0_4-.LJTI0_3
	.long	.LBB0_13-.LJTI0_3
	.long	.LBB0_15-.LJTI0_3
	.long	.LBB0_15-.LJTI0_3
	.long	.LBB0_14-.LJTI0_3
	.long	.LBB0_14-.LJTI0_3
.LJTI0_4:
	.long	.LBB0_15-.LJTI0_4
	.long	.LBB0_15-.LJTI0_4
	.long	.LBB0_4-.LJTI0_4
	.long	.LBB0_13-.LJTI0_4
	.long	.LBB0_15-.LJTI0_4
	.long	.LBB0_15-.LJTI0_4
	.long	.LBB0_14-.LJTI0_4
	.long	.LBB0_14-.LJTI0_4

	.section	.text.rust_eh_personality,"ax",@progbits
	.globl	rust_eh_personality
	.p2align	4, 0x90
	.type	rust_eh_personality,@function
rust_eh_personality:
.Lfunc_begin1:
	.file	31 "/rustc/442ae7f04026c215a03b155eaaf9cde8bb5cf02a/src/libpanic_abort/lib.rs"
	.loc	31 100 0
	.cfi_startproc
	.loc	31 100 46 prologue_end
	retq
.Ltmp0:
.Lfunc_end1:
	.size	rust_eh_personality, .Lfunc_end1-rust_eh_personality
	.cfi_endproc

	.section	.text._ZN3std3sys4unix4args3imp15ARGV_INIT_ARRAY12init_wrapper17ha0784cf4b257b6e8E,"ax",@progbits
	.p2align	4, 0x90
	.type	_ZN3std3sys4unix4args3imp15ARGV_INIT_ARRAY12init_wrapper17ha0784cf4b257b6e8E,@function
_ZN3std3sys4unix4args3imp15ARGV_INIT_ARRAY12init_wrapper17ha0784cf4b257b6e8E:
.Lfunc_begin2:
	.loc	22 114 0
	.cfi_startproc
	pushq	%rbx
	.cfi_def_cfa_offset 16
	.cfi_offset %rbx, -16
	.file	32 "/rustc/442ae7f04026c215a03b155eaaf9cde8bb5cf02a/src/libstd/sys/unix/mutex.rs"
	.loc	32 57 16 prologue_end
	leaq	_ZN3std3sys4unix4args3imp4LOCK17h9fc7aead56154171E(%rip), %rbx
	movq	%rbx, %rdi
	callq	*pthread_mutex_lock@GOTPCREL(%rip)
.Ltmp1:
	.loc	32 62 16
	movq	%rbx, %rdi
	popq	%rbx
	.cfi_def_cfa_offset 8
	jmpq	*pthread_mutex_unlock@GOTPCREL(%rip)
.Ltmp2:
.Lfunc_end2:
	.size	_ZN3std3sys4unix4args3imp15ARGV_INIT_ARRAY12init_wrapper17ha0784cf4b257b6e8E, .Lfunc_end2-_ZN3std3sys4unix4args3imp15ARGV_INIT_ARRAY12init_wrapper17ha0784cf4b257b6e8E
	.cfi_endproc
	.file	33 "/rustc/442ae7f04026c215a03b155eaaf9cde8bb5cf02a/src/libstd/sys_common/mutex.rs"
	.file	34 "/rustc/442ae7f04026c215a03b155eaaf9cde8bb5cf02a/src/libcore/ptr/mod.rs"

	.type	_ZN3std3sys4unix4args3imp15ARGV_INIT_ARRAY17h332d8fa11ca89018E,@object
	.section	.init_array.00099,"aw",@progbits
	.p2align	3
_ZN3std3sys4unix4args3imp15ARGV_INIT_ARRAY17h332d8fa11ca89018E:
	.quad	_ZN3std3sys4unix4args3imp15ARGV_INIT_ARRAY12init_wrapper17ha0784cf4b257b6e8E
	.size	_ZN3std3sys4unix4args3imp15ARGV_INIT_ARRAY17h332d8fa11ca89018E, 8

	.type	_ZN3std3sys4unix4args3imp4LOCK17h9fc7aead56154171E,@object
	.section	.bss._ZN3std3sys4unix4args3imp4LOCK17h9fc7aead56154171E,"aw",@nobits
	.p2align	3
_ZN3std3sys4unix4args3imp4LOCK17h9fc7aead56154171E:
	.zero	40
	.size	_ZN3std3sys4unix4args3imp4LOCK17h9fc7aead56154171E, 40

	.section	.bss._ZN3std3sys4unix4args3imp4LOCK17h9fc7aead56154171E,"aw",@nobits
.Lsec_end0:
	.section	.init_array.00099,"aw",@progbits
.Lsec_end1:
	.section	.text.rust_eh_personality,"ax",@progbits
.Lsec_end2:
	.section	.text._ZN3std3sys4unix4args3imp15ARGV_INIT_ARRAY12init_wrapper17ha0784cf4b257b6e8E,"ax",@progbits
.Lsec_end3:
	.section	".note.GNU-stack","",@progbits